; ModuleID = '43/438.cpp'
source_filename = "43/438.cpp"
target datalayout = "e-m:e-p270:32:32-p271:32:32-p272:64:64-i64:64-f80:128-n8:16:32:64-S128"
target triple = "x86_64-pc-linux-gnu"

%"class.std::ios_base::Init" = type { i8 }
%"class.std::basic_istream" = type { i32 (...)**, i64, %"class.std::basic_ios" }
%"class.std::basic_ios" = type { %"class.std::ios_base", %"class.std::basic_ostream"*, i8, i8, %"class.std::basic_streambuf"*, %"class.std::ctype"*, %"class.std::num_put"*, %"class.std::num_get"* }
%"class.std::ios_base" = type { i32 (...)**, i64, i64, i32, i32, i32, %"struct.std::ios_base::_Callback_list"*, %"struct.std::ios_base::_Words", [8 x %"struct.std::ios_base::_Words"], i32, %"struct.std::ios_base::_Words"*, %"class.std::locale" }
%"struct.std::ios_base::_Callback_list" = type { %"struct.std::ios_base::_Callback_list"*, void (i32, %"class.std::ios_base"*, i32)*, i32, i32 }
%"struct.std::ios_base::_Words" = type { i8*, i64 }
%"class.std::locale" = type { %"class.std::locale::_Impl"* }
%"class.std::locale::_Impl" = type { i32, %"class.std::locale::facet"**, i64, %"class.std::locale::facet"**, i8** }
%"class.std::locale::facet" = type <{ i32 (...)**, i32, [4 x i8] }>
%"class.std::basic_ostream" = type { i32 (...)**, %"class.std::basic_ios" }
%"class.std::basic_streambuf" = type { i32 (...)**, i8*, i8*, i8*, i8*, i8*, i8*, %"class.std::locale" }
%"class.std::ctype" = type <{ %"class.std::locale::facet.base", [4 x i8], %struct.__locale_struct*, i8, [7 x i8], i32*, i32*, i16*, i8, [256 x i8], [256 x i8], i8, [6 x i8] }>
%"class.std::locale::facet.base" = type <{ i32 (...)**, i32 }>
%struct.__locale_struct = type { [13 x %struct.__locale_data*], i16*, i32*, i32*, [13 x i8*] }
%struct.__locale_data = type opaque
%"class.std::num_put" = type { %"class.std::locale::facet.base", [4 x i8] }
%"class.std::num_get" = type { %"class.std::locale::facet.base", [4 x i8] }

@_ZStL8__ioinit = internal global %"class.std::ios_base::Init" zeroinitializer, align 1
@__dso_handle = external hidden global i8
@_ZSt3cin = external dso_local global %"class.std::basic_istream", align 8
@_ZSt4cout = external dso_local global %"class.std::basic_ostream", align 8
@.str = private unnamed_addr constant [2 x i8] c" \00", align 1
@llvm.global_ctors = appending global [1 x { i32, void ()*, i8* }] [{ i32, void ()*, i8* } { i32 65535, void ()* @_GLOBAL__sub_I_438.cpp, i8* null }]

; Function Attrs: noinline uwtable
define internal void @__cxx_global_var_init() #0 section ".text.startup" {
  call void @_ZNSt8ios_base4InitC1Ev(%"class.std::ios_base::Init"* @_ZStL8__ioinit)
  %1 = call i32 @__cxa_atexit(void (i8*)* bitcast (void (%"class.std::ios_base::Init"*)* @_ZNSt8ios_base4InitD1Ev to void (i8*)*), i8* getelementptr inbounds (%"class.std::ios_base::Init", %"class.std::ios_base::Init"* @_ZStL8__ioinit, i32 0, i32 0), i8* @__dso_handle) #3
  ret void
}

declare dso_local void @_ZNSt8ios_base4InitC1Ev(%"class.std::ios_base::Init"*) unnamed_addr #1

; Function Attrs: nounwind
declare dso_local void @_ZNSt8ios_base4InitD1Ev(%"class.std::ios_base::Init"*) unnamed_addr #2

; Function Attrs: nounwind
declare dso_local i32 @__cxa_atexit(void (i8*)*, i8*, i8*) #3

; Function Attrs: noinline norecurse uwtable
define dso_local i32 @main() #4 {
  %1 = alloca i32, align 4
  %2 = alloca i32, align 4
  %3 = alloca i32, align 4
  %4 = alloca i32, align 4
  %5 = alloca i32, align 4
  %6 = alloca [9999 x i32], align 16
  store i32 0, i32* %1, align 4
  %7 = call dereferenceable(280) %"class.std::basic_istream"* @_ZNSirsERi(%"class.std::basic_istream"* @_ZSt3cin, i32* dereferenceable(4) %4)
  store i32 2, i32* %2, align 4
  br label %8

8:                                                ; preds = %37, %0
  %9 = load i32, i32* %2, align 4
  %10 = load i32, i32* %4, align 4
  %11 = icmp sle i32 %9, %10
  br i1 %11, label %12, label %40

12:                                               ; preds = %8
  store i32 2, i32* %3, align 4
  br label %13

13:                                               ; preds = %24, %12
  %14 = load i32, i32* %3, align 4
  %15 = load i32, i32* %2, align 4
  %16 = icmp sle i32 %14, %15
  br i1 %16, label %17, label %27

17:                                               ; preds = %13
  %18 = load i32, i32* %2, align 4
  %19 = load i32, i32* %3, align 4
  %20 = srem i32 %18, %19
  %21 = icmp eq i32 %20, 0
  br i1 %21, label %22, label %23

22:                                               ; preds = %17
  br label %27

23:                                               ; preds = %17
  br label %24

24:                                               ; preds = %23
  %25 = load i32, i32* %3, align 4
  %26 = add nsw i32 %25, 1
  store i32 %26, i32* %3, align 4
  br label %13

27:                                               ; preds = %22, %13
  %28 = load i32, i32* %3, align 4
  %29 = load i32, i32* %2, align 4
  %30 = icmp eq i32 %28, %29
  br i1 %30, label %31, label %36

31:                                               ; preds = %27
  %32 = load i32, i32* %2, align 4
  %33 = load i32, i32* %2, align 4
  %34 = sext i32 %33 to i64
  %35 = getelementptr inbounds [9999 x i32], [9999 x i32]* %6, i64 0, i64 %34
  store i32 %32, i32* %35, align 4
  br label %36

36:                                               ; preds = %31, %27
  br label %37

37:                                               ; preds = %36
  %38 = load i32, i32* %2, align 4
  %39 = add nsw i32 %38, 1
  store i32 %39, i32* %2, align 4
  br label %8

40:                                               ; preds = %8
  store i32 2, i32* %5, align 4
  br label %41

41:                                               ; preds = %95, %40
  %42 = load i32, i32* %5, align 4
  %43 = load i32, i32* %4, align 4
  %44 = sdiv i32 %43, 2
  %45 = icmp sle i32 %42, %44
  br i1 %45, label %46, label %98

46:                                               ; preds = %41
  store i32 0, i32* %2, align 4
  br label %47

47:                                               ; preds = %91, %46
  %48 = load i32, i32* %2, align 4
  %49 = load i32, i32* %4, align 4
  %50 = icmp sle i32 %48, %49
  br i1 %50, label %51, label %94

51:                                               ; preds = %47
  %52 = load i32, i32* %5, align 4
  %53 = load i32, i32* %2, align 4
  %54 = sext i32 %53 to i64
  %55 = getelementptr inbounds [9999 x i32], [9999 x i32]* %6, i64 0, i64 %54
  %56 = load i32, i32* %55, align 4
  %57 = icmp eq i32 %52, %56
  br i1 %57, label %58, label %90

58:                                               ; preds = %51
  store i32 0, i32* %3, align 4
  br label %59

59:                                               ; preds = %86, %58
  %60 = load i32, i32* %3, align 4
  %61 = load i32, i32* %4, align 4
  %62 = icmp sle i32 %60, %61
  br i1 %62, label %63, label %89

63:                                               ; preds = %59
  %64 = load i32, i32* %4, align 4
  %65 = load i32, i32* %5, align 4
  %66 = sub nsw i32 %64, %65
  %67 = load i32, i32* %3, align 4
  %68 = sext i32 %67 to i64
  %69 = getelementptr inbounds [9999 x i32], [9999 x i32]* %6, i64 0, i64 %68
  %70 = load i32, i32* %69, align 4
  %71 = icmp eq i32 %66, %70
  br i1 %71, label %72, label %85

72:                                               ; preds = %63
  %73 = load i32, i32* %2, align 4
  %74 = sext i32 %73 to i64
  %75 = getelementptr inbounds [9999 x i32], [9999 x i32]* %6, i64 0, i64 %74
  %76 = load i32, i32* %75, align 4
  %77 = call dereferenceable(272) %"class.std::basic_ostream"* @_ZNSolsEi(%"class.std::basic_ostream"* @_ZSt4cout, i32 %76)
  %78 = call dereferenceable(272) %"class.std::basic_ostream"* @_ZStlsISt11char_traitsIcEERSt13basic_ostreamIcT_ES5_PKc(%"class.std::basic_ostream"* dereferenceable(272) %77, i8* getelementptr inbounds ([2 x i8], [2 x i8]* @.str, i64 0, i64 0))
  %79 = load i32, i32* %3, align 4
  %80 = sext i32 %79 to i64
  %81 = getelementptr inbounds [9999 x i32], [9999 x i32]* %6, i64 0, i64 %80
  %82 = load i32, i32* %81, align 4
  %83 = call dereferenceable(272) %"class.std::basic_ostream"* @_ZNSolsEi(%"class.std::basic_ostream"* %78, i32 %82)
  %84 = call dereferenceable(272) %"class.std::basic_ostream"* @_ZNSolsEPFRSoS_E(%"class.std::basic_ostream"* %83, %"class.std::basic_ostream"* (%"class.std::basic_ostream"*)* @_ZSt4endlIcSt11char_traitsIcEERSt13basic_ostreamIT_T0_ES6_)
  br label %85

85:                                               ; preds = %72, %63
  br label %86

86:                                               ; preds = %85
  %87 = load i32, i32* %3, align 4
  %88 = add nsw i32 %87, 1
  store i32 %88, i32* %3, align 4
  br label %59

89:                                               ; preds = %59
  br label %90

90:                                               ; preds = %89, %51
  br label %91

91:                                               ; preds = %90
  %92 = load i32, i32* %2, align 4
  %93 = add nsw i32 %92, 1
  store i32 %93, i32* %2, align 4
  br label %47

94:                                               ; preds = %47
  br label %95

95:                                               ; preds = %94
  %96 = load i32, i32* %5, align 4
  %97 = add nsw i32 %96, 1
  store i32 %97, i32* %5, align 4
  br label %41

98:                                               ; preds = %41
  ret i32 0
}

declare dso_local dereferenceable(280) %"class.std::basic_istream"* @_ZNSirsERi(%"class.std::basic_istream"*, i32* dereferenceable(4)) #1

declare dso_local dereferenceable(272) %"class.std::basic_ostream"* @_ZStlsISt11char_traitsIcEERSt13basic_ostreamIcT_ES5_PKc(%"class.std::basic_ostream"* dereferenceable(272), i8*) #1

declare dso_local dereferenceable(272) %"class.std::basic_ostream"* @_ZNSolsEi(%"class.std::basic_ostream"*, i32) #1

declare dso_local dereferenceable(272) %"class.std::basic_ostream"* @_ZNSolsEPFRSoS_E(%"class.std::basic_ostream"*, %"class.std::basic_ostream"* (%"class.std::basic_ostream"*)*) #1

declare dso_local dereferenceable(272) %"class.std::basic_ostream"* @_ZSt4endlIcSt11char_traitsIcEERSt13basic_ostreamIT_T0_ES6_(%"class.std::basic_ostream"* dereferenceable(272)) #1

; Function Attrs: noinline uwtable
define internal void @_GLOBAL__sub_I_438.cpp() #0 section ".text.startup" {
  call void @__cxx_global_var_init()
  ret void
}


!llvm.module.flags = !{!0}
!llvm.ident = !{!1}

!0 = !{i32 1, !"wchar_size", i32 4}
!1 = !{!"clang version 10.0.0-4ubuntu1 "}
